; ModuleID = '50/1414.c'
source_filename = "50/1414.c"
target datalayout = "e-m:e-p270:32:32-p271:32:32-p272:64:64-i64:64-f80:128-n8:16:32:64-S128"
target triple = "x86_64-pc-linux-gnu"

@.str = private unnamed_addr constant [3 x i8] c"%d\00", align 1
@.str.1 = private unnamed_addr constant [4 x i8] c"%d\0A\00", align 1

; Function Attrs: noinline nounwind uwtable
define dso_local i32 @main() #0 {
  %1 = alloca i32, align 4
  %2 = alloca i32, align 4
  %3 = alloca i32, align 4
  %4 = alloca [12 x i32], align 16
  %5 = alloca [12 x i32], align 16
  store i32 0, i32* %1, align 4
  %6 = call i32 (i8*, ...) @__isoc99_scanf(i8* getelementptr inbounds ([3 x i8], [3 x i8]* @.str, i64 0, i64 0), i32* %2)
  %7 = getelementptr inbounds [12 x i32], [12 x i32]* %4, i64 0, i64 0
  store i32 5, i32* %7, align 16
  %8 = getelementptr inbounds [12 x i32], [12 x i32]* %4, i64 0, i64 1
  store i32 1, i32* %8, align 4
  %9 = getelementptr inbounds [12 x i32], [12 x i32]* %4, i64 0, i64 2
  store i32 1, i32* %9, align 8
  %10 = getelementptr inbounds [12 x i32], [12 x i32]* %4, i64 0, i64 3
  store i32 4, i32* %10, align 4
  %11 = getelementptr inbounds [12 x i32], [12 x i32]* %4, i64 0, i64 4
  store i32 6, i32* %11, align 16
  %12 = getelementptr inbounds [12 x i32], [12 x i32]* %4, i64 0, i64 5
  store i32 2, i32* %12, align 4
  %13 = getelementptr inbounds [12 x i32], [12 x i32]* %4, i64 0, i64 6
  store i32 4, i32* %13, align 8
  %14 = getelementptr inbounds [12 x i32], [12 x i32]* %4, i64 0, i64 7
  store i32 0, i32* %14, align 4
  %15 = getelementptr inbounds [12 x i32], [12 x i32]* %4, i64 0, i64 8
  store i32 3, i32* %15, align 16
  %16 = getelementptr inbounds [12 x i32], [12 x i32]* %4, i64 0, i64 9
  store i32 5, i32* %16, align 4
  %17 = getelementptr inbounds [12 x i32], [12 x i32]* %4, i64 0, i64 10
  store i32 1, i32* %17, align 8
  %18 = getelementptr inbounds [12 x i32], [12 x i32]* %4, i64 0, i64 11
  store i32 3, i32* %18, align 4
  store i32 0, i32* %3, align 4
  br label %19

19:                                               ; preds = %52, %0
  %20 = load i32, i32* %3, align 4
  %21 = icmp slt i32 %20, 12
  br i1 %21, label %22, label %55

22:                                               ; preds = %19
  %23 = load i32, i32* %3, align 4
  %24 = sext i32 %23 to i64
  %25 = getelementptr inbounds [12 x i32], [12 x i32]* %4, i64 0, i64 %24
  %26 = load i32, i32* %25, align 4
  %27 = load i32, i32* %2, align 4
  %28 = add nsw i32 %26, %27
  %29 = icmp sgt i32 %28, 7
  br i1 %29, label %30, label %41

30:                                               ; preds = %22
  %31 = load i32, i32* %3, align 4
  %32 = sext i32 %31 to i64
  %33 = getelementptr inbounds [12 x i32], [12 x i32]* %4, i64 0, i64 %32
  %34 = load i32, i32* %33, align 4
  %35 = load i32, i32* %2, align 4
  %36 = add nsw i32 %34, %35
  %37 = sub nsw i32 %36, 7
  %38 = load i32, i32* %3, align 4
  %39 = sext i32 %38 to i64
  %40 = getelementptr inbounds [12 x i32], [12 x i32]* %5, i64 0, i64 %39
  store i32 %37, i32* %40, align 4
  br label %51

41:                                               ; preds = %22
  %42 = load i32, i32* %3, align 4
  %43 = sext i32 %42 to i64
  %44 = getelementptr inbounds [12 x i32], [12 x i32]* %4, i64 0, i64 %43
  %45 = load i32, i32* %44, align 4
  %46 = load i32, i32* %2, align 4
  %47 = add nsw i32 %45, %46
  %48 = load i32, i32* %3, align 4
  %49 = sext i32 %48 to i64
  %50 = getelementptr inbounds [12 x i32], [12 x i32]* %5, i64 0, i64 %49
  store i32 %47, i32* %50, align 4
  br label %51

51:                                               ; preds = %41, %30
  br label %52

52:                                               ; preds = %51
  %53 = load i32, i32* %3, align 4
  %54 = add nsw i32 %53, 1
  store i32 %54, i32* %3, align 4
  br label %19

55:                                               ; preds = %19
  store i32 0, i32* %3, align 4
  br label %56

56:                                               ; preds = %70, %55
  %57 = load i32, i32* %3, align 4
  %58 = icmp slt i32 %57, 12
  br i1 %58, label %59, label %73

59:                                               ; preds = %56
  %60 = load i32, i32* %3, align 4
  %61 = sext i32 %60 to i64
  %62 = getelementptr inbounds [12 x i32], [12 x i32]* %5, i64 0, i64 %61
  %63 = load i32, i32* %62, align 4
  %64 = icmp eq i32 %63, 5
  br i1 %64, label %65, label %69

65:                                               ; preds = %59
  %66 = load i32, i32* %3, align 4
  %67 = add nsw i32 %66, 1
  %68 = call i32 (i8*, ...) @printf(i8* getelementptr inbounds ([4 x i8], [4 x i8]* @.str.1, i64 0, i64 0), i32 %67)
  br label %69

69:                                               ; preds = %65, %59
  br label %70

70:                                               ; preds = %69
  %71 = load i32, i32* %3, align 4
  %72 = add nsw i32 %71, 1
  store i32 %72, i32* %3, align 4
  br label %56

73:                                               ; preds = %56
  ret i32 0
}

declare dso_local i32 @__isoc99_scanf(i8*, ...) #1

declare dso_local i32 @printf(i8*, ...) #1


!llvm.module.flags = !{!0}
!llvm.ident = !{!1}

!0 = !{i32 1, !"wchar_size", i32 4}
!1 = !{!"clang version 10.0.0-4ubuntu1 "}
